target datalayout = "e-m:e-p270:32:32-p271:32:32-p272:64:64-i64:64-i128:128-f80:128-n8:16:32:64-S128"
target triple = "x86_64-pc-linux-gnu"

%union.pthread_mutex_t = type { %struct.__pthread_mutex_s }
%struct.__pthread_mutex_s = type { i32, i32, i32, i32, i32, i16, i16, %struct.__pthread_internal_list }
%struct.__pthread_internal_list = type { ptr, ptr }
%struct.cl_fmap = type { ptr, ptr, ptr, i64, i64, i64, i64, i8, i8, i8, i64, i64, i64, i64, ptr, ptr, ptr, ptr, ptr, ptr, ptr, i8, [16 x i8], i8, [20 x i8], i8, [32 x i8], ptr, ptr }

@fmap_mutex = global %union.pthread_mutex_t zeroinitializer, align 8
@.str.1 = private unnamed_addr constant [30 x i8] c"fmap: attempted void mapping\0A\00", align 1
@.str.2 = private unnamed_addr constant [29 x i8] c"fmap: attempted oof mapping\0A\00", align 1
@.str.7 = private unnamed_addr constant [47 x i8] c"fmap: attempted mapping with unaligned offset\0A\00", align 1
@.str.8 = private unnamed_addr constant [36 x i8] c"fmap: map header allocation failed\0A\00", align 1
@.str.9 = private unnamed_addr constant [29 x i8] c"fmap: map allocation failed\0A\00", align 1

; Function Attrs: nounwind uwtable
define internal i64 @fmap_align_items(i64 noundef %0, i64 noundef %1) #0 {
  %3 = alloca i64, align 8
  %4 = alloca i64, align 8
  store i64 %0, ptr %3, align 8
  store i64 %1, ptr %4, align 8
  %5 = load i64, ptr %3, align 8
  %6 = load i64, ptr %4, align 8
  %7 = udiv i64 %5, %6
  %8 = load i64, ptr %3, align 8
  %9 = load i64, ptr %4, align 8
  %10 = urem i64 %8, %9
  %11 = icmp ne i64 %10, 0
  %12 = zext i1 %11 to i32
  %13 = sext i32 %12 to i64
  %14 = add i64 %7, %13
  ret i64 %14
}

; Function Attrs: nounwind uwtable
define internal i64 @fmap_align_to(i64 noundef %0, i64 noundef %1) #0 {
  %3 = alloca i64, align 8
  %4 = alloca i64, align 8
  store i64 %0, ptr %3, align 8
  store i64 %1, ptr %4, align 8
  %5 = load i64, ptr %4, align 8
  %6 = load i64, ptr %3, align 8
  %7 = load i64, ptr %4, align 8
  %8 = call i64 @fmap_align_items(i64 noundef %6, i64 noundef %7)
  %9 = mul i64 %5, %8
  ret i64 %9
}

; Function Attrs: nounwind uwtable
define internal i32 @cli_getpagesize() #0 {
  %1 = call i64 @sysconf(i32 noundef 30) #8
  %2 = trunc i64 %1 to i32
  ret i32 %2
}

; Function Attrs: nounwind uwtable
define ptr @cl_fmap_open_handle(ptr noundef %0, i64 noundef %1, i64 noundef %2, ptr noundef %3, i32 noundef %4) #0 {
  %6 = alloca ptr, align 8
  %7 = alloca i64, align 8
  %8 = alloca i64, align 8
  %9 = alloca ptr, align 8
  %10 = alloca i32, align 4
  %11 = alloca i32, align 4
  %12 = alloca i64, align 8
  %13 = alloca i64, align 8
  %14 = alloca i64, align 8
  %15 = alloca ptr, align 8
  %16 = alloca i32, align 4
  store ptr %0, ptr %6, align 8
  store i64 %1, ptr %7, align 8
  store i64 %2, ptr %8, align 8
  store ptr %3, ptr %9, align 8
  store i32 %4, ptr %10, align 4
  store i32 20, ptr %11, align 4
  store ptr null, ptr %15, align 8
  %17 = call i32 @cli_getpagesize()
  store i32 %17, ptr %16, align 4
  %18 = load i64, ptr %7, align 8
  %19 = icmp slt i64 %18, 0
  br i1 %19, label %27, label %20

20:                                               ; preds = %5
  %21 = load i64, ptr %7, align 8
  %22 = load i64, ptr %7, align 8
  %23 = load i32, ptr %16, align 4
  %24 = sext i32 %23 to i64
  %25 = call i64 @fmap_align_to(i64 noundef %22, i64 noundef %24)
  %26 = icmp ne i64 %21, %25
  br i1 %26, label %27, label %28

27:                                               ; preds = %20, %5
  call void (ptr, ...) @cli_warnmsg(ptr noundef @.str.7)
  br label %146

28:                                               ; preds = %20
  %29 = load i64, ptr %8, align 8
  %30 = icmp ne i64 %29, 0
  br i1 %30, label %32, label %31

31:                                               ; preds = %28
  call void (ptr, ...) @cli_dbgmsg(ptr noundef @.str.1)
  br label %146

32:                                               ; preds = %28
  %33 = load i64, ptr %7, align 8
  %34 = load i64, ptr %8, align 8
  %35 = icmp uge i64 %33, %34
  br i1 %35, label %36, label %37

36:                                               ; preds = %32
  call void (ptr, ...) @cli_warnmsg(ptr noundef @.str.2)
  br label %146

37:                                               ; preds = %32
  %38 = load i64, ptr %8, align 8
  %39 = load i32, ptr %16, align 4
  %40 = sext i32 %39 to i64
  %41 = call i64 @fmap_align_items(i64 noundef %38, i64 noundef %40)
  store i64 %41, ptr %12, align 8
  %42 = load i64, ptr %12, align 8
  %43 = mul i64 %42, 8
  store i64 %43, ptr %14, align 8
  %44 = load i64, ptr %12, align 8
  %45 = load i32, ptr %16, align 4
  %46 = sext i32 %45 to i64
  %47 = mul i64 %44, %46
  store i64 %47, ptr %13, align 8
  %48 = call noalias ptr @calloc(i64 noundef 1, i64 noundef 240) #9
  store ptr %48, ptr %15, align 8
  %49 = load ptr, ptr %15, align 8
  %50 = icmp ne ptr %49, null
  br i1 %50, label %52, label %51

51:                                               ; preds = %37
  call void (ptr, ...) @cli_warnmsg(ptr noundef @.str.8)
  br label %146

52:                                               ; preds = %37
  %53 = load i64, ptr %14, align 8
  %54 = call ptr @cli_max_calloc(i64 noundef 1, i64 noundef %53)
  %55 = load ptr, ptr %15, align 8
  %56 = getelementptr inbounds %struct.cl_fmap, ptr %55, i32 0, i32 27
  store ptr %54, ptr %56, align 8
  %57 = load ptr, ptr %15, align 8
  %58 = getelementptr inbounds %struct.cl_fmap, ptr %57, i32 0, i32 27
  %59 = load ptr, ptr %58, align 8
  %60 = icmp ne ptr %59, null
  br i1 %60, label %62, label %61

61:                                               ; preds = %52
  call void (ptr, ...) @cli_warnmsg(ptr noundef @.str.8)
  br label %146

62:                                               ; preds = %52
  %63 = load i32, ptr %10, align 4
  %64 = icmp ne i32 %63, 0
  br i1 %64, label %65, label %78

65:                                               ; preds = %62
  %66 = call i32 @pthread_mutex_lock(ptr noundef @fmap_mutex) #8
  %67 = load i64, ptr %13, align 8
  %68 = call ptr @mmap(ptr noundef null, i64 noundef %67, i32 noundef 3, i32 noundef 34, i32 noundef -1, i64 noundef 0) #8
  %69 = load ptr, ptr %15, align 8
  %70 = getelementptr inbounds %struct.cl_fmap, ptr %69, i32 0, i32 2
  store ptr %68, ptr %70, align 8
  %71 = icmp eq ptr %68, inttoptr (i64 -1 to ptr)
  br i1 %71, label %72, label %75

72:                                               ; preds = %65
  %73 = load ptr, ptr %15, align 8
  %74 = getelementptr inbounds %struct.cl_fmap, ptr %73, i32 0, i32 2
  store ptr null, ptr %74, align 8
  br label %76

75:                                               ; preds = %65
  br label %76

76:                                               ; preds = %75, %72
  %77 = call i32 @pthread_mutex_unlock(ptr noundef @fmap_mutex) #8
  br label %78

78:                                               ; preds = %76, %62
  %79 = load i32, ptr %10, align 4
  %80 = icmp ne i32 %79, 0
  br i1 %80, label %86, label %81

81:                                               ; preds = %78
  %82 = load i64, ptr %13, align 8
  %83 = call ptr @cli_max_malloc(i64 noundef %82)
  %84 = load ptr, ptr %15, align 8
  %85 = getelementptr inbounds %struct.cl_fmap, ptr %84, i32 0, i32 2
  store ptr %83, ptr %85, align 8
  br label %86

86:                                               ; preds = %81, %78
  %87 = load ptr, ptr %15, align 8
  %88 = getelementptr inbounds %struct.cl_fmap, ptr %87, i32 0, i32 2
  %89 = load ptr, ptr %88, align 8
  %90 = icmp ne ptr %89, null
  br i1 %90, label %92, label %91

91:                                               ; preds = %86
  call void (ptr, ...) @cli_warnmsg(ptr noundef @.str.9)
  br label %146

92:                                               ; preds = %86
  %93 = load ptr, ptr %6, align 8
  %94 = load ptr, ptr %15, align 8
  %95 = getelementptr inbounds %struct.cl_fmap, ptr %94, i32 0, i32 0
  store ptr %93, ptr %95, align 8
  %96 = load ptr, ptr %9, align 8
  %97 = load ptr, ptr %15, align 8
  %98 = getelementptr inbounds %struct.cl_fmap, ptr %97, i32 0, i32 1
  store ptr %96, ptr %98, align 8
  %99 = load i32, ptr %10, align 4
  %100 = icmp ne i32 %99, 0
  %101 = select i1 %100, i32 1, i32 0
  %102 = icmp ne i32 %101, 0
  %103 = load ptr, ptr %15, align 8
  %104 = getelementptr inbounds %struct.cl_fmap, ptr %103, i32 0, i32 7
  %105 = zext i1 %102 to i8
  store i8 %105, ptr %104, align 8
  %106 = load i64, ptr %7, align 8
  %107 = load ptr, ptr %15, align 8
  %108 = getelementptr inbounds %struct.cl_fmap, ptr %107, i32 0, i32 10
  store i64 %106, ptr %108, align 8
  %109 = load ptr, ptr %15, align 8
  %110 = getelementptr inbounds %struct.cl_fmap, ptr %109, i32 0, i32 11
  store i64 0, ptr %110, align 8
  %111 = load i64, ptr %8, align 8
  %112 = load ptr, ptr %15, align 8
  %113 = getelementptr inbounds %struct.cl_fmap, ptr %112, i32 0, i32 13
  store i64 %111, ptr %113, align 8
  %114 = load i64, ptr %8, align 8
  %115 = load ptr, ptr %15, align 8
  %116 = getelementptr inbounds %struct.cl_fmap, ptr %115, i32 0, i32 12
  store i64 %114, ptr %116, align 8
  %117 = load i64, ptr %12, align 8
  %118 = load ptr, ptr %15, align 8
  %119 = getelementptr inbounds %struct.cl_fmap, ptr %118, i32 0, i32 4
  store i64 %117, ptr %119, align 8
  %120 = load i32, ptr %16, align 4
  %121 = sext i32 %120 to i64
  %122 = load ptr, ptr %15, align 8
  %123 = getelementptr inbounds %struct.cl_fmap, ptr %122, i32 0, i32 5
  store i64 %121, ptr %123, align 8
  %124 = load ptr, ptr %15, align 8
  %125 = getelementptr inbounds %struct.cl_fmap, ptr %124, i32 0, i32 6
  store i64 0, ptr %125, align 8
  %126 = load ptr, ptr %15, align 8
  %127 = getelementptr inbounds %struct.cl_fmap, ptr %126, i32 0, i32 8
  store i8 0, ptr %127, align 1
  %128 = load ptr, ptr %15, align 8
  %129 = getelementptr inbounds %struct.cl_fmap, ptr %128, i32 0, i32 14
  store ptr @unmap_handle, ptr %129, align 8
  %130 = load ptr, ptr %15, align 8
  %131 = getelementptr inbounds %struct.cl_fmap, ptr %130, i32 0, i32 15
  store ptr @handle_need, ptr %131, align 8
  %132 = load ptr, ptr %15, align 8
  %133 = getelementptr inbounds %struct.cl_fmap, ptr %132, i32 0, i32 16
  store ptr @handle_need_offstr, ptr %133, align 8
  %134 = load ptr, ptr %15, align 8
  %135 = getelementptr inbounds %struct.cl_fmap, ptr %134, i32 0, i32 17
  store ptr @handle_gets, ptr %135, align 8
  %136 = load ptr, ptr %15, align 8
  %137 = getelementptr inbounds %struct.cl_fmap, ptr %136, i32 0, i32 18
  store ptr @handle_unneed_off, ptr %137, align 8
  %138 = load ptr, ptr %15, align 8
  %139 = getelementptr inbounds %struct.cl_fmap, ptr %138, i32 0, i32 9
  store i8 1, ptr %139, align 2
  %140 = load ptr, ptr %15, align 8
  %141 = getelementptr inbounds %struct.cl_fmap, ptr %140, i32 0, i32 21
  store i8 0, ptr %141, align 8
  %142 = load ptr, ptr %15, align 8
  %143 = getelementptr inbounds %struct.cl_fmap, ptr %142, i32 0, i32 23
  store i8 0, ptr %143, align 1
  %144 = load ptr, ptr %15, align 8
  %145 = getelementptr inbounds %struct.cl_fmap, ptr %144, i32 0, i32 25
  store i8 0, ptr %145, align 2
  store i32 0, ptr %11, align 4
  br label %146

146:                                              ; preds = %92, %91, %61, %51, %36, %31, %27
  %147 = load i32, ptr %11, align 4
  %148 = icmp ne i32 0, %147
  br i1 %148, label %149, label %151

149:                                              ; preds = %146
  %150 = load ptr, ptr %15, align 8
  call void @unmap_handle(ptr noundef %150)
  store ptr null, ptr %15, align 8
  br label %151

151:                                              ; preds = %149, %146
  %152 = load ptr, ptr %15, align 8
  ret ptr %152
}