; Function Attrs: nounwind uwtable
define noundef ptr @cl_fmap_open_handle(ptr noundef %0, i64 noundef %1, i64 noundef %2, ptr noundef %3, i32 noundef %4) local_unnamed_addr #0 {
  %6 = tail call i64 @sysconf(i32 noundef 30) #18
  %7 = icmp slt i64 %1, 0
  br i1 %7, label %16, label %8

8:                                                ; preds = %5
  %sext = shl i64 %6, 32
  %9 = ashr exact i64 %sext, 32
  %10 = udiv i64 %1, %9
  %11 = urem i64 %1, %9
  %12 = icmp ne i64 %11, 0
  %13 = zext i1 %12 to i64
  %14 = add nuw i64 %10, %13
  %15 = mul i64 %14, %9
  %.not = icmp eq i64 %15, %1
  br i1 %.not, label %17, label %16

16:                                               ; preds = %8, %5
  tail call void (ptr, ...) @cli_warnmsg(ptr noundef nonnull @.str.7) #18
  br label %69

17:                                               ; preds = %8
  %.not59 = icmp eq i64 %2, 0
  br i1 %.not59, label %18, label %19

18:                                               ; preds = %17
  tail call void (ptr, ...) @cli_dbgmsg(ptr noundef nonnull @.str.1) #18
  br label %69

19:                                               ; preds = %17
  %.not60 = icmp ult i64 %1, %2
  br i1 %.not60, label %21, label %20

20:                                               ; preds = %19
  tail call void (ptr, ...) @cli_warnmsg(ptr noundef nonnull @.str.2) #18
  br label %69

21:                                               ; preds = %19
  %22 = udiv i64 %2, %9
  %23 = urem i64 %2, %9
  %24 = icmp ne i64 %23, 0
  %25 = zext i1 %24 to i64
  %26 = add i64 %22, %25
  %27 = mul i64 %26, %9
  %28 = tail call noalias dereferenceable_or_null(240) ptr @calloc(i64 noundef 1, i64 noundef 240) #19
  %.not61 = icmp eq ptr %28, null
  br i1 %.not61, label %29, label %30

29:                                               ; preds = %21
  tail call void (ptr, ...) @cli_warnmsg(ptr noundef nonnull @.str.8) #18
  br label %69

30:                                               ; preds = %21
  %31 = shl i64 %26, 3
  %32 = tail call ptr @cli_max_calloc(i64 noundef 1, i64 noundef %31) #18
  %33 = getelementptr inbounds i8, ptr %28, i64 224
  store ptr %32, ptr %33, align 8
  %.not62 = icmp eq ptr %32, null
  br i1 %.not62, label %34, label %35

34:                                               ; preds = %30
  tail call void (ptr, ...) @cli_warnmsg(ptr noundef nonnull @.str.8) #18
  br label %69

35:                                               ; preds = %30
  %36 = icmp ne i32 %4, 0
  br i1 %36, label %37, label %.critedge

37:                                               ; preds = %35
  %38 = tail call i32 @pthread_mutex_lock(ptr noundef nonnull @fmap_mutex) #18
  %39 = tail call ptr @mmap(ptr noundef null, i64 noundef %27, i32 noundef 3, i32 noundef 34, i32 noundef -1, i64 noundef 0) #18
  %40 = getelementptr inbounds i8, ptr %28, i64 16
  %41 = icmp eq ptr %39, inttoptr (i64 -1 to ptr)
  %spec.select = select i1 %41, ptr null, ptr %39
  store ptr %spec.select, ptr %40, align 8
  %42 = tail call i32 @pthread_mutex_unlock(ptr noundef nonnull @fmap_mutex) #18
  br label %45

.critedge:                                        ; preds = %35
  %43 = tail call ptr @cli_max_malloc(i64 noundef %27) #18
  %44 = getelementptr inbounds i8, ptr %28, i64 16
  store ptr %43, ptr %44, align 8
  br label %45

45:                                               ; preds = %37, %.critedge
  %46 = phi ptr [ %spec.select, %37 ], [ %43, %.critedge ]
  %.not63 = icmp eq ptr %46, null
  br i1 %.not63, label %47, label %48

47:                                               ; preds = %45
  tail call void (ptr, ...) @cli_warnmsg(ptr noundef nonnull @.str.9) #18
  br label %69

48:                                               ; preds = %45
  store ptr %0, ptr %28, align 8
  %49 = getelementptr inbounds i8, ptr %28, i64 8
  store ptr %3, ptr %49, align 8
  %50 = getelementptr inbounds i8, ptr %28, i64 56
  %51 = zext i1 %36 to i8
  store i8 %51, ptr %50, align 8
  %52 = getelementptr inbounds i8, ptr %28, i64 64
  store i64 %1, ptr %52, align 8
  %53 = getelementptr inbounds i8, ptr %28, i64 72
  store i64 0, ptr %53, align 8
  %54 = getelementptr inbounds i8, ptr %28, i64 88
  store i64 %2, ptr %54, align 8
  %55 = getelementptr inbounds i8, ptr %28, i64 80
  store i64 %2, ptr %55, align 8
  %56 = getelementptr inbounds i8, ptr %28, i64 32
  store i64 %26, ptr %56, align 8
  %57 = getelementptr inbounds i8, ptr %28, i64 40
  store i64 %9, ptr %57, align 8
  %58 = getelementptr inbounds i8, ptr %28, i64 48
  store i64 0, ptr %58, align 8
  %59 = getelementptr inbounds i8, ptr %28, i64 57
  store i8 0, ptr %59, align 1
  %60 = getelementptr inbounds i8, ptr %28, i64 96
  store ptr @unmap_handle, ptr %60, align 8
  %61 = getelementptr inbounds i8, ptr %28, i64 104
  store ptr @handle_need, ptr %61, align 8
  %62 = getelementptr inbounds i8, ptr %28, i64 112
  store ptr @handle_need_offstr, ptr %62, align 8
  %63 = getelementptr inbounds i8, ptr %28, i64 120
  store ptr @handle_gets, ptr %63, align 8
  %64 = getelementptr inbounds i8, ptr %28, i64 128
  store ptr @handle_unneed_off, ptr %64, align 8
  %65 = getelementptr inbounds i8, ptr %28, i64 58
  store i8 1, ptr %65, align 2
  %66 = getelementptr inbounds i8, ptr %28, i64 152
  store i8 0, ptr %66, align 8
  %67 = getelementptr inbounds i8, ptr %28, i64 169
  store i8 0, ptr %67, align 1
  %68 = getelementptr inbounds i8, ptr %28, i64 190
  store i8 0, ptr %68, align 2
  br label %70

69:                                               ; preds = %16, %20, %47, %34, %29, %18
  %.054.ph = phi ptr [ null, %18 ], [ null, %29 ], [ %28, %34 ], [ %28, %47 ], [ null, %20 ], [ null, %16 ]
  tail call void @unmap_handle(ptr noundef %.054.ph)
  br label %70

70:                                               ; preds = %48, %69
  %.1 = phi ptr [ null, %69 ], [ %28, %48 ]
  ret ptr %.1
}